; Function Attrs: mustprogress uwtable
define internal void @_ZL14ucstrTextCloseP5UText(ptr nocapture noundef %ut) #0 {
entry:
  %providerProperties = getelementptr inbounds i8, ptr %ut, i64 8
  %0 = load i32, ptr %providerProperties, align 8
  %and = and i32 %0, 32
  %tobool.not = icmp eq i32 %and, 0
  br i1 %tobool.not, label %if.end, label %if.then

if.then:                                          ; preds = %entry
  %context = getelementptr inbounds i8, ptr %ut, i64 72
  %1 = load ptr, ptr %context, align 8
  tail call void @uprv_free_75(ptr noundef %1)
  store ptr null, ptr %context, align 8
  br label %if.end

if.end:                                           ; preds = %if.then, %entry
  ret void
}